; ModuleID = '17/815.c'
source_filename = "17/815.c"
target datalayout = "e-m:e-p270:32:32-p271:32:32-p272:64:64-i64:64-f80:128-n8:16:32:64-S128"
target triple = "x86_64-pc-linux-gnu"

@.str = private unnamed_addr constant [3 x i8] c"%d\00", align 1

; Function Attrs: noinline nounwind uwtable
define dso_local void @main() #0 {
  %1 = alloca i32, align 4
  %2 = alloca i32, align 4
  %3 = alloca i32, align 4
  %4 = alloca i32, align 4
  %5 = alloca [500 x i8], align 16
  %6 = alloca i32, align 4
  %7 = alloca i32, align 4
  %8 = call i32 (i8*, ...) @__isoc99_scanf(i8* getelementptr inbounds ([3 x i8], [3 x i8]* @.str, i64 0, i64 0), i32* %1)
  %9 = call i32 @getchar()
  store i32 1, i32* %4, align 4
  br label %10

10:                                               ; preds = %113, %0
  %11 = load i32, i32* %4, align 4
  %12 = load i32, i32* %1, align 4
  %13 = icmp sle i32 %11, %12
  br i1 %13, label %14, label %116

14:                                               ; preds = %10
  %15 = getelementptr inbounds [500 x i8], [500 x i8]* %5, i64 0, i64 0
  %16 = call i32 (i8*, ...) bitcast (i32 (...)* @gets to i32 (i8*, ...)*)(i8* %15)
  %17 = getelementptr inbounds [500 x i8], [500 x i8]* %5, i64 0, i64 0
  %18 = call i32 @puts(i8* %17)
  %19 = getelementptr inbounds [500 x i8], [500 x i8]* %5, i64 0, i64 0
  %20 = call i64 @strlen(i8* %19) #3
  %21 = trunc i64 %20 to i32
  store i32 %21, i32* %2, align 4
  %22 = load i32, i32* %2, align 4
  %23 = sub nsw i32 %22, 1
  store i32 %23, i32* %6, align 4
  br label %24

24:                                               ; preds = %87, %14
  %25 = load i32, i32* %6, align 4
  %26 = icmp sge i32 %25, 0
  br i1 %26, label %27, label %90

27:                                               ; preds = %24
  store i32 0, i32* %7, align 4
  %28 = load i32, i32* %6, align 4
  %29 = sext i32 %28 to i64
  %30 = getelementptr inbounds [500 x i8], [500 x i8]* %5, i64 0, i64 %29
  %31 = load i8, i8* %30, align 1
  %32 = sext i8 %31 to i32
  %33 = icmp ne i32 %32, 40
  br i1 %33, label %34, label %45

34:                                               ; preds = %27
  %35 = load i32, i32* %6, align 4
  %36 = sext i32 %35 to i64
  %37 = getelementptr inbounds [500 x i8], [500 x i8]* %5, i64 0, i64 %36
  %38 = load i8, i8* %37, align 1
  %39 = sext i8 %38 to i32
  %40 = icmp ne i32 %39, 41
  br i1 %40, label %41, label %45

41:                                               ; preds = %34
  %42 = load i32, i32* %6, align 4
  %43 = sext i32 %42 to i64
  %44 = getelementptr inbounds [500 x i8], [500 x i8]* %5, i64 0, i64 %43
  store i8 32, i8* %44, align 1
  br label %86

45:                                               ; preds = %34, %27
  %46 = load i32, i32* %6, align 4
  %47 = sext i32 %46 to i64
  %48 = getelementptr inbounds [500 x i8], [500 x i8]* %5, i64 0, i64 %47
  %49 = load i8, i8* %48, align 1
  %50 = sext i8 %49 to i32
  %51 = icmp eq i32 %50, 40
  br i1 %51, label %52, label %85

52:                                               ; preds = %45
  %53 = load i32, i32* %6, align 4
  %54 = add nsw i32 %53, 1
  store i32 %54, i32* %3, align 4
  br label %55

55:                                               ; preds = %74, %52
  %56 = load i32, i32* %3, align 4
  %57 = load i32, i32* %2, align 4
  %58 = icmp slt i32 %56, %57
  br i1 %58, label %59, label %77

59:                                               ; preds = %55
  %60 = load i32, i32* %3, align 4
  %61 = sext i32 %60 to i64
  %62 = getelementptr inbounds [500 x i8], [500 x i8]* %5, i64 0, i64 %61
  %63 = load i8, i8* %62, align 1
  %64 = sext i8 %63 to i32
  %65 = icmp eq i32 %64, 41
  br i1 %65, label %66, label %73

66:                                               ; preds = %59
  %67 = load i32, i32* %3, align 4
  %68 = sext i32 %67 to i64
  %69 = getelementptr inbounds [500 x i8], [500 x i8]* %5, i64 0, i64 %68
  store i8 32, i8* %69, align 1
  %70 = load i32, i32* %6, align 4
  %71 = sext i32 %70 to i64
  %72 = getelementptr inbounds [500 x i8], [500 x i8]* %5, i64 0, i64 %71
  store i8 32, i8* %72, align 1
  store i32 1, i32* %7, align 4
  br label %77

73:                                               ; preds = %59
  br label %74

74:                                               ; preds = %73
  %75 = load i32, i32* %3, align 4
  %76 = add nsw i32 %75, 1
  store i32 %76, i32* %3, align 4
  br label %55

77:                                               ; preds = %66, %55
  %78 = load i32, i32* %7, align 4
  %79 = icmp eq i32 %78, 0
  br i1 %79, label %80, label %84

80:                                               ; preds = %77
  %81 = load i32, i32* %6, align 4
  %82 = sext i32 %81 to i64
  %83 = getelementptr inbounds [500 x i8], [500 x i8]* %5, i64 0, i64 %82
  store i8 36, i8* %83, align 1
  br label %84

84:                                               ; preds = %80, %77
  br label %85

85:                                               ; preds = %84, %45
  br label %86

86:                                               ; preds = %85, %41
  br label %87

87:                                               ; preds = %86
  %88 = load i32, i32* %6, align 4
  %89 = add nsw i32 %88, -1
  store i32 %89, i32* %6, align 4
  br label %24

90:                                               ; preds = %24
  store i32 0, i32* %6, align 4
  br label %91

91:                                               ; preds = %107, %90
  %92 = load i32, i32* %6, align 4
  %93 = load i32, i32* %2, align 4
  %94 = icmp slt i32 %92, %93
  br i1 %94, label %95, label %110

95:                                               ; preds = %91
  %96 = load i32, i32* %6, align 4
  %97 = sext i32 %96 to i64
  %98 = getelementptr inbounds [500 x i8], [500 x i8]* %5, i64 0, i64 %97
  %99 = load i8, i8* %98, align 1
  %100 = sext i8 %99 to i32
  %101 = icmp eq i32 %100, 41
  br i1 %101, label %102, label %106

102:                                              ; preds = %95
  %103 = load i32, i32* %6, align 4
  %104 = sext i32 %103 to i64
  %105 = getelementptr inbounds [500 x i8], [500 x i8]* %5, i64 0, i64 %104
  store i8 63, i8* %105, align 1
  br label %106

106:                                              ; preds = %102, %95
  br label %107

107:                                              ; preds = %106
  %108 = load i32, i32* %6, align 4
  %109 = add nsw i32 %108, 1
  store i32 %109, i32* %6, align 4
  br label %91

110:                                              ; preds = %91
  %111 = getelementptr inbounds [500 x i8], [500 x i8]* %5, i64 0, i64 0
  %112 = call i32 @puts(i8* %111)
  br label %113

113:                                              ; preds = %110
  %114 = load i32, i32* %4, align 4
  %115 = add nsw i32 %114, 1
  store i32 %115, i32* %4, align 4
  br label %10

116:                                              ; preds = %10
  ret void
}

declare dso_local i32 @__isoc99_scanf(i8*, ...) #1

declare dso_local i32 @getchar() #1

declare dso_local i32 @gets(...) #1

declare dso_local i32 @puts(i8*) #1

; Function Attrs: nounwind readonly
declare dso_local i64 @strlen(i8*) #2


!llvm.module.flags = !{!0}
!llvm.ident = !{!1}

!0 = !{i32 1, !"wchar_size", i32 4}
!1 = !{!"clang version 10.0.0-4ubuntu1 "}
